target datalayout = "e-m:e-p270:32:32-p271:32:32-p272:64:64-i64:64-i128:128-f80:128-n8:16:32:64-S128"
target triple = "x86_64-pc-linux-gnu"

%"class.llvm::SmallVectorBase" = type { ptr, i32, i32 }
%"class.llvm::MDOperand" = type { ptr }
%"class.llvm::ArrayRef.644" = type { ptr, i64 }
%"class.llvm::MutableArrayRef" = type { %"class.llvm::ArrayRef.644" }

; Function Attrs: mustprogress nounwind uwtable
define linkonce_odr hidden noundef ptr @_ZNK4llvm25SmallVectorTemplateCommonINS_9MDOperandEvE5beginEv(ptr noundef nonnull align 8 dereferenceable(16) %0) #0 comdat align 2 {
  %2 = alloca ptr, align 8
  store ptr %0, ptr %2, align 8
  %3 = load ptr, ptr %2, align 8
  %4 = getelementptr inbounds nuw %"class.llvm::SmallVectorBase", ptr %3, i32 0, i32 0
  %5 = load ptr, ptr %4, align 8
  ret ptr %5
}

; Function Attrs: mustprogress nounwind uwtable
define linkonce_odr hidden noundef ptr @_ZNK4llvm25SmallVectorTemplateCommonINS_9MDOperandEvE4dataEv(ptr noundef nonnull align 8 dereferenceable(16) %0) #0 comdat align 2 {
  %2 = alloca ptr, align 8
  store ptr %0, ptr %2, align 8
  %3 = load ptr, ptr %2, align 8
  %4 = call noundef ptr @_ZNK4llvm25SmallVectorTemplateCommonINS_9MDOperandEvE5beginEv(ptr noundef nonnull align 8 dereferenceable(16) %3)
  ret ptr %4
}

; Function Attrs: mustprogress nounwind uwtable
define linkonce_odr hidden void @_ZN4llvm8ArrayRefINS_9MDOperandEEC2EPKS1_m(ptr noundef nonnull align 8 dereferenceable(16) %0, ptr noundef %1, i64 noundef %2) unnamed_addr #0 comdat align 2 {
  %4 = alloca ptr, align 8
  %5 = alloca ptr, align 8
  %6 = alloca i64, align 8
  store ptr %0, ptr %4, align 8
  store ptr %1, ptr %5, align 8
  store i64 %2, ptr %6, align 8
  %7 = load ptr, ptr %4, align 8
  %8 = getelementptr inbounds nuw %"class.llvm::ArrayRef.644", ptr %7, i32 0, i32 0
  %9 = load ptr, ptr %5, align 8
  store ptr %9, ptr %8, align 8
  %10 = getelementptr inbounds nuw %"class.llvm::ArrayRef.644", ptr %7, i32 0, i32 1
  %11 = load i64, ptr %6, align 8
  store i64 %11, ptr %10, align 8
  ret void
}

; Function Attrs: mustprogress nounwind uwtable
define linkonce_odr hidden void @_ZN4llvm8ArrayRefINS_9MDOperandEEC2IvEERKNS_25SmallVectorTemplateCommonIS1_T_EE(ptr noundef nonnull align 8 dereferenceable(16) %0, ptr noundef nonnull align 8 dereferenceable(16) %1) unnamed_addr #0 comdat align 2 {
  %3 = alloca ptr, align 8
  %4 = alloca ptr, align 8
  store ptr %0, ptr %3, align 8
  store ptr %1, ptr %4, align 8
  %5 = load ptr, ptr %3, align 8
  %6 = getelementptr inbounds nuw %"class.llvm::ArrayRef.644", ptr %5, i32 0, i32 0
  %7 = load ptr, ptr %4, align 8
  %8 = call noundef ptr @_ZNK4llvm25SmallVectorTemplateCommonINS_9MDOperandEvE4dataEv(ptr noundef nonnull align 8 dereferenceable(16) %7)
  store ptr %8, ptr %6, align 8
  %9 = getelementptr inbounds nuw %"class.llvm::ArrayRef.644", ptr %5, i32 0, i32 1
  %10 = load ptr, ptr %4, align 8
  %11 = call noundef i64 @_ZNK4llvm15SmallVectorBaseIjE4sizeEv(ptr noundef nonnull align 8 dereferenceable(16) %10)
  store i64 %11, ptr %9, align 8
  ret void
}

; Function Attrs: mustprogress nounwind uwtable
define linkonce_odr hidden noundef ptr @_ZNK4llvm6MDNode6Header11getLargePtrEv(ptr noundef nonnull align 8 dereferenceable(12) %0) #0 comdat align 2 {
  %2 = alloca ptr, align 8
  store ptr %0, ptr %2, align 8
  %3 = load ptr, ptr %2, align 8
  %4 = getelementptr inbounds i8, ptr %3, i64 -16
  ret ptr %4
}

; Function Attrs: mustprogress nounwind uwtable
define linkonce_odr hidden void @_ZN4llvm15MutableArrayRefINS_9MDOperandEEC2EPS1_m(ptr noundef nonnull align 8 dereferenceable(16) %0, ptr noundef %1, i64 noundef %2) unnamed_addr #0 comdat align 2 {
  %4 = alloca ptr, align 8
  %5 = alloca ptr, align 8
  %6 = alloca i64, align 8
  store ptr %0, ptr %4, align 8
  store ptr %1, ptr %5, align 8
  store i64 %2, ptr %6, align 8
  %7 = load ptr, ptr %4, align 8
  %8 = load ptr, ptr %5, align 8
  %9 = load i64, ptr %6, align 8
  call void @_ZN4llvm8ArrayRefINS_9MDOperandEEC2EPKS1_m(ptr noundef nonnull align 8 dereferenceable(16) %7, ptr noundef %8, i64 noundef %9)
  ret void
}

; Function Attrs: mustprogress nounwind uwtable
define linkonce_odr hidden void @_ZN4llvm15MutableArrayRefINS_9MDOperandEEC2ERNS_15SmallVectorImplIS1_EE(ptr noundef nonnull align 8 dereferenceable(16) %0, ptr noundef nonnull align 8 dereferenceable(16) %1) unnamed_addr #0 comdat align 2 {
  %3 = alloca ptr, align 8
  %4 = alloca ptr, align 8
  store ptr %0, ptr %3, align 8
  store ptr %1, ptr %4, align 8
  %5 = load ptr, ptr %3, align 8
  %6 = load ptr, ptr %4, align 8
  call void @_ZN4llvm8ArrayRefINS_9MDOperandEEC2IvEERKNS_25SmallVectorTemplateCommonIS1_T_EE(ptr noundef nonnull align 8 dereferenceable(16) %5, ptr noundef nonnull align 8 dereferenceable(16) %6)
  ret void
}

; Function Attrs: mustprogress nounwind uwtable
define linkonce_odr hidden void @_ZN4llvm15SmallVectorImplINS_9MDOperandEE6resizeEm(ptr noundef nonnull align 8 dereferenceable(16) %0, i64 noundef %1) #0 comdat align 2 {
  %3 = alloca ptr, align 8
  %4 = alloca i64, align 8
  store ptr %0, ptr %3, align 8
  store i64 %1, ptr %4, align 8
  %5 = load ptr, ptr %3, align 8
  %6 = load i64, ptr %4, align 8
  call void @_ZN4llvm15SmallVectorImplINS_9MDOperandEE10resizeImplILb0EEEvm(ptr noundef nonnull align 8 dereferenceable(16) %5, i64 noundef %6)
  ret void
}

; Function Attrs: mustprogress nounwind uwtable
define linkonce_odr hidden noundef nonnull align 8 dereferenceable(16) ptr @_ZN4llvm6MDNode6Header8getLargeEv(ptr noundef nonnull align 8 dereferenceable(12) %0) #0 comdat align 2 {
  %2 = alloca ptr, align 8
  store ptr %0, ptr %2, align 8
  %3 = load ptr, ptr %2, align 8
  %4 = call noundef ptr @_ZNK4llvm6MDNode6Header11getLargePtrEv(ptr noundef nonnull align 8 dereferenceable(12) %3)
  ret ptr %4
}

; Function Attrs: mustprogress nounwind uwtable
define linkonce_odr hidden noundef i64 @_ZNK4llvm8ArrayRefINS_9MDOperandEE4sizeEv(ptr noundef nonnull align 8 dereferenceable(16) %0) #0 comdat align 2 {
  %2 = alloca ptr, align 8
  store ptr %0, ptr %2, align 8
  %3 = load ptr, ptr %2, align 8
  %4 = getelementptr inbounds nuw %"class.llvm::ArrayRef.644", ptr %3, i32 0, i32 1
  %5 = load i64, ptr %4, align 8
  ret i64 %5
}

; Function Attrs: mustprogress nounwind uwtable
define linkonce_odr hidden { ptr, i64 } @_ZN4llvm6MDNode6Header8operandsEv(ptr noundef nonnull align 8 dereferenceable(12) %0) #0 comdat align 2 {
  %2 = alloca %"class.llvm::MutableArrayRef", align 8
  %3 = alloca ptr, align 8
  store ptr %0, ptr %3, align 8
  %4 = load ptr, ptr %3, align 8
  %5 = load i64, ptr %4, align 8
  %6 = lshr i64 %5, 1
  %7 = and i64 %6, 1
  %8 = trunc i64 %7 to i1
  br i1 %8, label %9, label %11

9:                                                ; preds = %1
  %10 = call noundef nonnull align 8 dereferenceable(16) ptr @_ZN4llvm6MDNode6Header8getLargeEv(ptr noundef nonnull align 8 dereferenceable(12) %4)
  call void @_ZN4llvm15MutableArrayRefINS_9MDOperandEEC2ERNS_15SmallVectorImplIS1_EE(ptr noundef nonnull align 8 dereferenceable(16) %2, ptr noundef nonnull align 8 dereferenceable(16) %10)
  br label %22

11:                                               ; preds = %1
  %12 = load i64, ptr %4, align 8
  %13 = lshr i64 %12, 2
  %14 = and i64 %13, 15
  %15 = trunc i64 %14 to i32
  %16 = sext i32 %15 to i64
  %17 = sub i64 0, %16
  %18 = getelementptr inbounds %"class.llvm::MDOperand", ptr %4, i64 %17
  %19 = load i64, ptr %4, align 8
  %20 = lshr i64 %19, 6
  %21 = and i64 %20, 15
  call void @_ZN4llvm15MutableArrayRefINS_9MDOperandEEC2EPS1_m(ptr noundef nonnull align 8 dereferenceable(16) %2, ptr noundef %18, i64 noundef %21)
  br label %22

22:                                               ; preds = %11, %9
  %23 = getelementptr inbounds nuw %"class.llvm::MutableArrayRef", ptr %2, i32 0, i32 0
  %24 = load { ptr, i64 }, ptr %23, align 8
  ret { ptr, i64 } %24
}

; Function Attrs: mustprogress nounwind uwtable
define dso_local void @_ZN4llvm6MDNode6Header6resizeEm(ptr noundef nonnull align 8 dereferenceable(12) %0, i64 noundef %1) #0 align 2 {
  %3 = alloca ptr, align 8
  %4 = alloca i64, align 8
  %5 = alloca %"class.llvm::MutableArrayRef", align 8
  store ptr %0, ptr %3, align 8
  store i64 %1, ptr %4, align 8
  %6 = load ptr, ptr %3, align 8
  %7 = call { ptr, i64 } @_ZN4llvm6MDNode6Header8operandsEv(ptr noundef nonnull align 8 dereferenceable(12) %6)
  %8 = getelementptr inbounds nuw %"class.llvm::MutableArrayRef", ptr %5, i32 0, i32 0
  %9 = getelementptr inbounds nuw { ptr, i64 }, ptr %8, i32 0, i32 0
  %10 = extractvalue { ptr, i64 } %7, 0
  store ptr %10, ptr %9, align 8
  %11 = getelementptr inbounds nuw { ptr, i64 }, ptr %8, i32 0, i32 1
  %12 = extractvalue { ptr, i64 } %7, 1
  store i64 %12, ptr %11, align 8
  %13 = call noundef i64 @_ZNK4llvm8ArrayRefINS_9MDOperandEE4sizeEv(ptr noundef nonnull align 8 dereferenceable(16) %5)
  %14 = load i64, ptr %4, align 8
  %15 = icmp eq i64 %13, %14
  br i1 %15, label %16, label %17

16:                                               ; preds = %2
  br label %36

17:                                               ; preds = %2
  %18 = load i64, ptr %6, align 8
  %19 = lshr i64 %18, 1
  %20 = and i64 %19, 1
  %21 = trunc i64 %20 to i1
  br i1 %21, label %22, label %25

22:                                               ; preds = %17
  %23 = call noundef nonnull align 8 dereferenceable(16) ptr @_ZN4llvm6MDNode6Header8getLargeEv(ptr noundef nonnull align 8 dereferenceable(12) %6)
  %24 = load i64, ptr %4, align 8
  call void @_ZN4llvm15SmallVectorImplINS_9MDOperandEE6resizeEm(ptr noundef nonnull align 8 dereferenceable(16) %23, i64 noundef %24)
  br label %36

25:                                               ; preds = %17
  %26 = load i64, ptr %4, align 8
  %27 = load i64, ptr %6, align 8
  %28 = lshr i64 %27, 2
  %29 = and i64 %28, 15
  %30 = icmp ule i64 %26, %29
  br i1 %30, label %31, label %33

31:                                               ; preds = %25
  %32 = load i64, ptr %4, align 8
  call void @_ZN4llvm6MDNode6Header11resizeSmallEm(ptr noundef nonnull align 8 dereferenceable(12) %6, i64 noundef %32)
  br label %35

33:                                               ; preds = %25
  %34 = load i64, ptr %4, align 8
  call void @_ZN4llvm6MDNode6Header18resizeSmallToLargeEm(ptr noundef nonnull align 8 dereferenceable(12) %6, i64 noundef %34)
  br label %35

35:                                               ; preds = %33, %31
  br label %36

36:                                               ; preds = %35, %22, %16
  ret void
}