; Function Attrs: mustprogress nounwind uwtable
define dso_local void @_ZN4llvm6MDNode6Header6resizeEm(ptr noundef nonnull align 8 dereferenceable(12) %0, i64 noundef %1) local_unnamed_addr #0 align 2 {
  %3 = load i64, ptr %0, align 8
  %4 = and i64 %3, 2
  %.not.i = icmp eq i64 %4, 0
  br i1 %.not.i, label %8, label %5

5:                                                ; preds = %2
  %6 = getelementptr inbounds i8, ptr %0, i64 -16
  %7 = tail call noundef i64 @_ZNK4llvm15SmallVectorBaseIjE4sizeEv(ptr noundef nonnull align 8 dereferenceable(16) %6) #23
  br label %_ZN4llvm6MDNode6Header8operandsEv.exit

8:                                                ; preds = %2
  %9 = lshr i64 %3, 6
  %10 = and i64 %9, 15
  br label %_ZN4llvm6MDNode6Header8operandsEv.exit

_ZN4llvm6MDNode6Header8operandsEv.exit:           ; preds = %5, %8
  %.sroa.3.0.i = phi i64 [ %10, %8 ], [ %7, %5 ]
  %11 = icmp eq i64 %.sroa.3.0.i, %1
  br i1 %11, label %22, label %12

12:                                               ; preds = %_ZN4llvm6MDNode6Header8operandsEv.exit
  %13 = load i64, ptr %0, align 8
  %14 = and i64 %13, 2
  %.not = icmp eq i64 %14, 0
  br i1 %.not, label %17, label %15

15:                                               ; preds = %12
  %16 = getelementptr inbounds i8, ptr %0, i64 -16
  tail call void @_ZN4llvm15SmallVectorImplINS_9MDOperandEE10resizeImplILb0EEEvm(ptr noundef nonnull align 8 dereferenceable(16) %16, i64 noundef %1)
  br label %22

17:                                               ; preds = %12
  %18 = lshr i64 %13, 2
  %19 = and i64 %18, 15
  %.not5 = icmp ugt i64 %1, %19
  br i1 %.not5, label %21, label %20

20:                                               ; preds = %17
  tail call void @_ZN4llvm6MDNode6Header11resizeSmallEm(ptr noundef nonnull align 8 dereferenceable(12) %0, i64 noundef %1)
  br label %22

21:                                               ; preds = %17
  tail call void @_ZN4llvm6MDNode6Header18resizeSmallToLargeEm(ptr noundef nonnull align 8 dereferenceable(12) %0, i64 noundef %1)
  br label %22

22:                                               ; preds = %20, %21, %_ZN4llvm6MDNode6Header8operandsEv.exit, %15
  ret void
}